; Function Attrs: nounwind uwtable
define internal ptr @typealias_value(ptr noundef captures(none) %0, ptr readnone captures(none) %1) #0 {
  %3 = getelementptr inbounds nuw i8, ptr %0, i64 40
  %4 = load ptr, ptr %3, align 8, !tbaa !136
  %.not.i = icmp eq ptr %4, null
  br i1 %.not.i, label %10, label %5

5:                                                ; preds = %2
  %6 = load i32, ptr %4, align 8, !tbaa !27
  %7 = icmp slt i32 %6, 0
  br i1 %7, label %typealias_get_value.exit, label %8

8:                                                ; preds = %5
  %9 = add nuw i32 %6, 1
  store i32 %9, ptr %4, align 8, !tbaa !27
  br label %typealias_get_value.exit

10:                                               ; preds = %2
  %11 = getelementptr inbounds nuw i8, ptr %0, i64 32
  %12 = load ptr, ptr %11, align 8, !tbaa !135
  %13 = tail call ptr @PyObject_CallNoArgs(ptr noundef %12) #8
  %14 = icmp eq ptr %13, null
  br i1 %14, label %typealias_get_value.exit, label %15

15:                                               ; preds = %10
  %16 = load i32, ptr %13, align 8, !tbaa !27
  %17 = icmp slt i32 %16, 0
  br i1 %17, label %_Py_NewRef.exit10.i, label %18

18:                                               ; preds = %15
  %19 = add nuw i32 %16, 1
  store i32 %19, ptr %13, align 8, !tbaa !27
  br label %_Py_NewRef.exit10.i

_Py_NewRef.exit10.i:                              ; preds = %18, %15
  store ptr %13, ptr %3, align 8, !tbaa !136
  br label %typealias_get_value.exit

typealias_get_value.exit:                         ; preds = %5, %8, %10, %_Py_NewRef.exit10.i
  %.0.i = phi ptr [ %13, %_Py_NewRef.exit10.i ], [ null, %10 ], [ %4, %5 ], [ %4, %8 ]
  ret ptr %.0.i
}